; Function Attrs: mustprogress uwtable
define void @_ZNK32pxrInternal_v0_24__pxrReserved__12Vt_ArrayBase15_DetachCopyHookEPKc(ptr nonnull readnone align 8 captures(none) %0, ptr noundef %1) local_unnamed_addr #0 align 2 personality ptr @__gxx_personality_v0 {
  %3 = alloca %"class.std::__cxx11::basic_string", align 8
  %4 = load atomic i8, ptr @_ZGVZNK32pxrInternal_v0_24__pxrReserved__12Vt_ArrayBase15_DetachCopyHookEPKcE3log acquire, align 8
  %5 = icmp eq i8 %4, 0
  br i1 %5, label %6, label %17, !prof !23

6:                                                ; preds = %2
  %7 = tail call i32 @__cxa_guard_acquire(ptr nonnull @_ZGVZNK32pxrInternal_v0_24__pxrReserved__12Vt_ArrayBase15_DetachCopyHookEPKcE3log) #17
  %.not = icmp eq i32 %7, 0
  br i1 %.not, label %17, label %8

8:                                                ; preds = %6
  %9 = load ptr, ptr @_ZN32pxrInternal_v0_24__pxrReserved__33VT_LOG_STACK_ON_ARRAY_DETACH_COPYE, align 8
  %10 = load atomic i64, ptr %9 seq_cst, align 8
  %.not.i = icmp eq i64 %10, 0
  br i1 %.not.i, label %11, label %14

11:                                               ; preds = %8
  invoke void @_ZN32pxrInternal_v0_24__pxrReserved__23Tf_InitializeEnvSettingIbEEvPNS_12TfEnvSettingIT_EE(ptr noundef nonnull @_ZN32pxrInternal_v0_24__pxrReserved__33VT_LOG_STACK_ON_ARRAY_DETACH_COPYE)
          to label %.noexc unwind label %22

.noexc:                                           ; preds = %11
  %12 = load ptr, ptr @_ZN32pxrInternal_v0_24__pxrReserved__33VT_LOG_STACK_ON_ARRAY_DETACH_COPYE, align 8
  %13 = load atomic i64, ptr %12 seq_cst, align 8
  br label %14

14:                                               ; preds = %.noexc, %8
  %.0.in.i = phi i64 [ %13, %.noexc ], [ %10, %8 ]
  %.0.i = inttoptr i64 %.0.in.i to ptr
  %15 = load i8, ptr %.0.i, align 1
  %16 = and i8 %15, 1
  store i8 %16, ptr @_ZZNK32pxrInternal_v0_24__pxrReserved__12Vt_ArrayBase15_DetachCopyHookEPKcE3log, align 1
  tail call void @__cxa_guard_release(ptr nonnull @_ZGVZNK32pxrInternal_v0_24__pxrReserved__12Vt_ArrayBase15_DetachCopyHookEPKcE3log) #17
  br label %17

17:                                               ; preds = %14, %6, %2
  %18 = load i8, ptr @_ZZNK32pxrInternal_v0_24__pxrReserved__12Vt_ArrayBase15_DetachCopyHookEPKcE3log, align 1
  %19 = trunc nuw i8 %18 to i1
  br i1 %19, label %20, label %26

20:                                               ; preds = %17
  call void (ptr, ptr, ...) @_ZN32pxrInternal_v0_24__pxrReserved__14TfStringPrintfB5cxx11EPKcz(ptr dead_on_unwind nonnull writable sret(%"class.std::__cxx11::basic_string") align 8 %3, ptr noundef nonnull @.str.10, ptr noundef %1)
  invoke void @_ZN32pxrInternal_v0_24__pxrReserved__15TfLogStackTraceERKNSt7__cxx1112basic_stringIcSt11char_traitsIcESaIcEEEb(ptr noundef nonnull align 8 dereferenceable(32) %3, i1 noundef zeroext false)
          to label %21 unwind label %24

21:                                               ; preds = %20
  call void @_ZNSt7__cxx1112basic_stringIcSt11char_traitsIcESaIcEED1Ev(ptr noundef nonnull align 8 dereferenceable(32) %3) #17
  br label %26

22:                                               ; preds = %11
  %23 = landingpad { ptr, i32 }
          cleanup
  tail call void @__cxa_guard_abort(ptr nonnull @_ZGVZNK32pxrInternal_v0_24__pxrReserved__12Vt_ArrayBase15_DetachCopyHookEPKcE3log) #17
  br label %27

24:                                               ; preds = %20
  %25 = landingpad { ptr, i32 }
          cleanup
  call void @_ZNSt7__cxx1112basic_stringIcSt11char_traitsIcESaIcEED1Ev(ptr noundef nonnull align 8 dereferenceable(32) %3) #17
  br label %27

26:                                               ; preds = %21, %17
  ret void

27:                                               ; preds = %24, %22
  %.pn = phi { ptr, i32 } [ %25, %24 ], [ %23, %22 ]
  resume { ptr, i32 } %.pn
}